; Function Attrs: mustprogress uwtable
define hidden void @_ZN11ext_numeral3negEv(ptr noundef nonnull align 8 dereferenceable(40) %0) local_unnamed_addr #3 align 2 {
  %2 = load i32, ptr %0, align 8, !tbaa !3
  switch i32 %2, label %8 [
    i32 0, label %3
    i32 1, label %4
    i32 2, label %7
  ]

3:                                                ; preds = %1
  store i32 2, ptr %0, align 8, !tbaa !3
  br label %8

4:                                                ; preds = %1
  %5 = getelementptr inbounds nuw i8, ptr %0, i64 8
  %6 = load ptr, ptr @_ZN8rational13g_mpq_managerE, align 8, !tbaa !14
  tail call void @_ZN11mpz_managerILb1EE3negER3mpz(ptr noundef nonnull align 8 dereferenceable(728) %6, ptr noundef nonnull align 8 dereferenceable(32) %5)
  br label %8

7:                                                ; preds = %1
  store i32 0, ptr %0, align 8, !tbaa !3
  br label %8

8:                                                ; preds = %7, %4, %3, %1
  ret void
}